target datalayout = "e-m:e-p270:32:32-p271:32:32-p272:64:64-i64:64-i128:128-f80:128-n8:16:32:64-S128"
target triple = "x86_64-pc-linux-gnu"

%struct.SurfaceDataRasInfo = type { %struct.SurfaceDataBounds, ptr, i32, i32, i32, i32, ptr, ptr, ptr, ptr, ptr, ptr, i32, %union.anon.0 }
%struct.SurfaceDataBounds = type { i32, i32, i32, i32 }
%union.anon.0 = type { ptr, [56 x i8] }

; Function Attrs: nounwind uwtable
define hidden void @UshortGrayToIntArgbConvert(ptr noundef %0, ptr noundef %1, i32 noundef %2, i32 noundef %3, ptr noundef %4, ptr noundef %5, ptr noundef %6, ptr noundef %7) #1 {
  %9 = alloca ptr, align 8
  %10 = alloca ptr, align 8
  %11 = alloca i32, align 4
  %12 = alloca i32, align 4
  %13 = alloca ptr, align 8
  %14 = alloca ptr, align 8
  %15 = alloca ptr, align 8
  %16 = alloca ptr, align 8
  %17 = alloca ptr, align 8
  %18 = alloca ptr, align 8
  %19 = alloca i32, align 4
  %20 = alloca i32, align 4
  %21 = alloca i32, align 4
  %22 = alloca i32, align 4
  %23 = alloca i32, align 4
  store ptr %0, ptr %9, align 8
  store ptr %1, ptr %10, align 8
  store i32 %2, ptr %11, align 4
  store i32 %3, ptr %12, align 4
  store ptr %4, ptr %13, align 8
  store ptr %5, ptr %14, align 8
  store ptr %6, ptr %15, align 8
  store ptr %7, ptr %16, align 8
  br label %24

24:                                               ; preds = %8
  %25 = load ptr, ptr %9, align 8
  store ptr %25, ptr %17, align 8
  %26 = load ptr, ptr %10, align 8
  store ptr %26, ptr %18, align 8
  %27 = load ptr, ptr %13, align 8
  %28 = getelementptr inbounds %struct.SurfaceDataRasInfo, ptr %27, i32 0, i32 4
  %29 = load i32, ptr %28, align 8
  store i32 %29, ptr %19, align 4
  %30 = load ptr, ptr %14, align 8
  %31 = getelementptr inbounds %struct.SurfaceDataRasInfo, ptr %30, i32 0, i32 4
  %32 = load i32, ptr %31, align 8
  store i32 %32, ptr %20, align 4
  %33 = load i32, ptr %11, align 4
  %34 = mul i32 %33, 2
  %35 = load i32, ptr %19, align 4
  %36 = sub i32 %35, %34
  store i32 %36, ptr %19, align 4
  %37 = load i32, ptr %11, align 4
  %38 = mul i32 %37, 4
  %39 = load i32, ptr %20, align 4
  %40 = sub i32 %39, %38
  store i32 %40, ptr %20, align 4
  br label %41

41:                                               ; preds = %89, %24
  %42 = load i32, ptr %11, align 4
  store i32 %42, ptr %21, align 4
  br label %43

43:                                               ; preds = %72, %41
  br label %44

44:                                               ; preds = %43
  br label %45

45:                                               ; preds = %44
  %46 = load ptr, ptr %17, align 8
  %47 = getelementptr inbounds i16, ptr %46, i64 0
  %48 = load i16, ptr %47, align 2
  %49 = zext i16 %48 to i32
  %50 = ashr i32 %49, 8
  store i32 %50, ptr %23, align 4
  %51 = load i32, ptr %23, align 4
  %52 = or i32 65280, %51
  %53 = shl i32 %52, 8
  %54 = load i32, ptr %23, align 4
  %55 = or i32 %53, %54
  %56 = shl i32 %55, 8
  %57 = load i32, ptr %23, align 4
  %58 = or i32 %56, %57
  store i32 %58, ptr %22, align 4
  br label %59

59:                                               ; preds = %45
  %60 = load i32, ptr %22, align 4
  %61 = load ptr, ptr %18, align 8
  %62 = getelementptr inbounds i32, ptr %61, i64 0
  store i32 %60, ptr %62, align 4
  br label %63

63:                                               ; preds = %59
  %64 = load ptr, ptr %17, align 8
  %65 = ptrtoint ptr %64 to i64
  %66 = add nsw i64 %65, 2
  %67 = inttoptr i64 %66 to ptr
  store ptr %67, ptr %17, align 8
  %68 = load ptr, ptr %18, align 8
  %69 = ptrtoint ptr %68 to i64
  %70 = add nsw i64 %69, 4
  %71 = inttoptr i64 %70 to ptr
  store ptr %71, ptr %18, align 8
  br label %72

72:                                               ; preds = %63
  %73 = load i32, ptr %21, align 4
  %74 = add i32 %73, -1
  store i32 %74, ptr %21, align 4
  %75 = icmp ugt i32 %74, 0
  br i1 %75, label %43, label %76, !llvm.loop !6

76:                                               ; preds = %72
  %77 = load ptr, ptr %17, align 8
  %78 = ptrtoint ptr %77 to i64
  %79 = load i32, ptr %19, align 4
  %80 = sext i32 %79 to i64
  %81 = add nsw i64 %78, %80
  %82 = inttoptr i64 %81 to ptr
  store ptr %82, ptr %17, align 8
  %83 = load ptr, ptr %18, align 8
  %84 = ptrtoint ptr %83 to i64
  %85 = load i32, ptr %20, align 4
  %86 = sext i32 %85 to i64
  %87 = add nsw i64 %84, %86
  %88 = inttoptr i64 %87 to ptr
  store ptr %88, ptr %18, align 8
  br label %89

89:                                               ; preds = %76
  %90 = load i32, ptr %12, align 4
  %91 = add i32 %90, -1
  store i32 %91, ptr %12, align 4
  %92 = icmp ugt i32 %91, 0
  br i1 %92, label %41, label %93, !llvm.loop !8

93:                                               ; preds = %89
  br label %94

94:                                               ; preds = %93
  ret void
}