; Function Attrs: nofree norecurse nosync nounwind memory(readwrite, inaccessiblemem: none) uwtable
define hidden void @UshortGrayToIntArgbConvert(ptr noundef %0, ptr noundef %1, i32 noundef %2, i32 noundef %3, ptr nocapture noundef readonly %4, ptr nocapture noundef readonly %5, ptr nocapture readnone %6, ptr nocapture readnone %7) #1 {
  %9 = getelementptr inbounds i8, ptr %4, i64 32
  %10 = load i32, ptr %9, align 8
  %11 = getelementptr inbounds i8, ptr %5, i64 32
  %12 = load i32, ptr %11, align 8
  %13 = shl i32 %2, 1
  %14 = sub i32 %10, %13
  %15 = shl i32 %2, 2
  %16 = sub i32 %12, %15
  %17 = sext i32 %14 to i64
  %18 = sext i32 %16 to i64
  br label %19

19:                                               ; preds = %33, %8
  %.024 = phi ptr [ %1, %8 ], [ %37, %33 ]
  %.022 = phi ptr [ %0, %8 ], [ %35, %33 ]
  %.0 = phi i32 [ %3, %8 ], [ %38, %33 ]
  br label %20

20:                                               ; preds = %20, %19
  %.125 = phi ptr [ %.024, %19 ], [ %31, %20 ]
  %.023 = phi i32 [ %2, %19 ], [ %32, %20 ]
  %.1 = phi ptr [ %.022, %19 ], [ %28, %20 ]
  %21 = load i16, ptr %.1, align 2
  %22 = lshr i16 %21, 8
  %23 = zext nneg i16 %22 to i32
  %24 = mul nuw nsw i32 %23, 65793
  %25 = or disjoint i32 %24, -16777216
  store i32 %25, ptr %.125, align 4
  %26 = ptrtoint ptr %.1 to i64
  %27 = add nsw i64 %26, 2
  %28 = inttoptr i64 %27 to ptr
  %29 = ptrtoint ptr %.125 to i64
  %30 = add nsw i64 %29, 4
  %31 = inttoptr i64 %30 to ptr
  %32 = add i32 %.023, -1
  %.not = icmp eq i32 %32, 0
  br i1 %.not, label %33, label %20, !llvm.loop !6

33:                                               ; preds = %20
  %34 = add nsw i64 %27, %17
  %35 = inttoptr i64 %34 to ptr
  %36 = add nsw i64 %30, %18
  %37 = inttoptr i64 %36 to ptr
  %38 = add i32 %.0, -1
  %.not27 = icmp eq i32 %38, 0
  br i1 %.not27, label %39, label %19, !llvm.loop !8

39:                                               ; preds = %33
  ret void
}